; Function Attrs: nounwind uwtable
define internal noundef i32 @H5D__earray_fill(ptr noundef %0, i64 noundef %1) #0 {
  %3 = alloca i64, align 8
  call void @llvm.lifetime.start.p0(i64 8, ptr nonnull %3) #11
  store i64 -1, ptr %3, align 8, !tbaa !10
  %4 = load i8, ptr @H5D_init_g, align 1, !tbaa !3, !range !7, !noundef !8
  %5 = trunc nuw i8 %4 to i1
  %6 = load i8, ptr @H5_libterm_g, align 1, !range !7
  %7 = trunc nuw i8 %6 to i1
  %8 = xor i1 %7, true
  %9 = select i1 %5, i1 true, i1 %8
  br i1 %9, label %10, label %12, !prof !9

10:                                               ; preds = %2
  %11 = call i32 @H5VM_array_fill(ptr noundef %0, ptr noundef nonnull %3, i64 noundef 8, i64 noundef %1) #11
  br label %12

12:                                               ; preds = %10, %2
  call void @llvm.lifetime.end.p0(i64 8, ptr nonnull %3) #11
  ret i32 0
}